(dp0
S'bins'
p1
(lp2
(dp3
S'cut'
p4
S'tag_Ele_pt > 35 && abs(tag_sc_eta) < 2.17 && ph_sc_eta >= -2.500000 && ph_sc_eta < -2.000000 && ph_et >= 10.000000 && ph_et < 15.000000'
p5
sS'name'
p6
S'bin00_ph_sc_eta_m2p50Tom2p00_ph_et_10p00To15p00'
p7
sS'vars'
p8
(dp9
S'ph_et'
p10
(dp11
S'max'
p12
I15
sS'min'
p13
I10
ssS'ph_sc_eta'
p14
(dp15
g12
F-2.0
sg13
F-2.5
sssS'title'
p16
S'; -2.500 < ph_sc_eta < -2.000; 10.000 < ph_et < 15.000'
p17
sa(dp18
g4
S'tag_Ele_pt > 35 && abs(tag_sc_eta) < 2.17 && ph_sc_eta >= -2.000000 && ph_sc_eta < -1.566000 && ph_et >= 10.000000 && ph_et < 15.000000'
p19
sg6
S'bin01_ph_sc_eta_m2p00Tom1p57_ph_et_10p00To15p00'
p20
sg8
(dp21
g10
(dp22
g12
I15
sg13
I10
ssg14
(dp23
g12
F-1.566
sg13
F-2.0
sssg16
S'; -2.000 < ph_sc_eta < -1.566; 10.000 < ph_et < 15.000'
p24
sa(dp25
g4
S'tag_Ele_pt > 35 && abs(tag_sc_eta) < 2.17 && ph_sc_eta >= -1.566000 && ph_sc_eta < -1.444200 && ph_et >= 10.000000 && ph_et < 15.000000'
p26
sg6
S'bin02_ph_sc_eta_m1p57Tom1p44_ph_et_10p00To15p00'
p27
sg8
(dp28
g10
(dp29
g12
I15
sg13
I10
ssg14
(dp30
g12
F-1.4442
sg13
F-1.566
sssg16
S'; -1.566 < ph_sc_eta < -1.444; 10.000 < ph_et < 15.000'
p31
sa(dp32
g4
S'tag_Ele_pt > 35 && abs(tag_sc_eta) < 2.17 && ph_sc_eta >= -1.444200 && ph_sc_eta < -0.800000 && ph_et >= 10.000000 && ph_et < 15.000000'
p33
sg6
S'bin03_ph_sc_eta_m1p44Tom0p80_ph_et_10p00To15p00'
p34
sg8
(dp35
g10
(dp36
g12
I15
sg13
I10
ssg14
(dp37
g12
F-0.8
sg13
F-1.4442
sssg16
S'; -1.444 < ph_sc_eta < -0.800; 10.000 < ph_et < 15.000'
p38
sa(dp39
g4
S'tag_Ele_pt > 35 && abs(tag_sc_eta) < 2.17 && ph_sc_eta >= -0.800000 && ph_sc_eta < 0.000000 && ph_et >= 10.000000 && ph_et < 15.000000'
p40
sg6
S'bin04_ph_sc_eta_m0p80To0p00_ph_et_10p00To15p00'
p41
sg8
(dp42
g10
(dp43
g12
I15
sg13
I10
ssg14
(dp44
g12
F0.0
sg13
F-0.8
sssg16
S'; -0.800 < ph_sc_eta < 0.000; 10.000 < ph_et < 15.000'
p45
sa(dp46
g4
S'tag_Ele_pt > 35 && abs(tag_sc_eta) < 2.17 && ph_sc_eta >= 0.000000 && ph_sc_eta < 0.800000 && ph_et >= 10.000000 && ph_et < 15.000000'
p47
sg6
S'bin05_ph_sc_eta_0p00To0p80_ph_et_10p00To15p00'
p48
sg8
(dp49
g10
(dp50
g12
I15
sg13
I10
ssg14
(dp51
g12
F0.8
sg13
F0.0
sssg16
S'; 0.000 < ph_sc_eta < 0.800; 10.000 < ph_et < 15.000'
p52
sa(dp53
g4
S'tag_Ele_pt > 35 && abs(tag_sc_eta) < 2.17 && ph_sc_eta >= 0.800000 && ph_sc_eta < 1.444200 && ph_et >= 10.000000 && ph_et < 15.000000'
p54
sg6
S'bin06_ph_sc_eta_0p80To1p44_ph_et_10p00To15p00'
p55
sg8
(dp56
g10
(dp57
g12
I15
sg13
I10
ssg14
(dp58
g12
F1.4442
sg13
F0.8
sssg16
S'; 0.800 < ph_sc_eta < 1.444; 10.000 < ph_et < 15.000'
p59
sa(dp60
g4
S'tag_Ele_pt > 35 && abs(tag_sc_eta) < 2.17 && ph_sc_eta >= 1.444200 && ph_sc_eta < 1.566000 && ph_et >= 10.000000 && ph_et < 15.000000'
p61
sg6
S'bin07_ph_sc_eta_1p44To1p57_ph_et_10p00To15p00'
p62
sg8
(dp63
g10
(dp64
g12
I15
sg13
I10
ssg14
(dp65
g12
F1.566
sg13
F1.4442
sssg16
S'; 1.444 < ph_sc_eta < 1.566; 10.000 < ph_et < 15.000'
p66
sa(dp67
g4
S'tag_Ele_pt > 35 && abs(tag_sc_eta) < 2.17 && ph_sc_eta >= 1.566000 && ph_sc_eta < 2.000000 && ph_et >= 10.000000 && ph_et < 15.000000'
p68
sg6
S'bin08_ph_sc_eta_1p57To2p00_ph_et_10p00To15p00'
p69
sg8
(dp70
g10
(dp71
g12
I15
sg13
I10
ssg14
(dp72
g12
F2.0
sg13
F1.566
sssg16
S'; 1.566 < ph_sc_eta < 2.000; 10.000 < ph_et < 15.000'
p73
sa(dp74
g4
S'tag_Ele_pt > 35 && abs(tag_sc_eta) < 2.17 && ph_sc_eta >= 2.000000 && ph_sc_eta < 2.500000 && ph_et >= 10.000000 && ph_et < 15.000000'
p75
sg6
S'bin09_ph_sc_eta_2p00To2p50_ph_et_10p00To15p00'
p76
sg8
(dp77
g10
(dp78
g12
I15
sg13
I10
ssg14
(dp79
g12
F2.5
sg13
F2.0
sssg16
S'; 2.000 < ph_sc_eta < 2.500; 10.000 < ph_et < 15.000'
p80
sa(dp81
g4
S'tag_Ele_pt > 35 && abs(tag_sc_eta) < 2.17 && ph_sc_eta >= -2.500000 && ph_sc_eta < -2.000000 && ph_et >= 15.000000 && ph_et < 20.000000'
p82
sg6
S'bin10_ph_sc_eta_m2p50Tom2p00_ph_et_15p00To20p00'
p83
sg8
(dp84
g10
(dp85
g12
I20
sg13
I15
ssg14
(dp86
g12
F-2.0
sg13
F-2.5
sssg16
S'; -2.500 < ph_sc_eta < -2.000; 15.000 < ph_et < 20.000'
p87
sa(dp88
g4
S'tag_Ele_pt > 35 && abs(tag_sc_eta) < 2.17 && ph_sc_eta >= -2.000000 && ph_sc_eta < -1.566000 && ph_et >= 15.000000 && ph_et < 20.000000'
p89
sg6
S'bin11_ph_sc_eta_m2p00Tom1p57_ph_et_15p00To20p00'
p90
sg8
(dp91
g10
(dp92
g12
I20
sg13
I15
ssg14
(dp93
g12
F-1.566
sg13
F-2.0
sssg16
S'; -2.000 < ph_sc_eta < -1.566; 15.000 < ph_et < 20.000'
p94
sa(dp95
g4
S'tag_Ele_pt > 35 && abs(tag_sc_eta) < 2.17 && ph_sc_eta >= -1.566000 && ph_sc_eta < -1.444200 && ph_et >= 15.000000 && ph_et < 20.000000'
p96
sg6
S'bin12_ph_sc_eta_m1p57Tom1p44_ph_et_15p00To20p00'
p97
sg8
(dp98
g10
(dp99
g12
I20
sg13
I15
ssg14
(dp100
g12
F-1.4442
sg13
F-1.566
sssg16
S'; -1.566 < ph_sc_eta < -1.444; 15.000 < ph_et < 20.000'
p101
sa(dp102
g4
S'tag_Ele_pt > 35 && abs(tag_sc_eta) < 2.17 && ph_sc_eta >= -1.444200 && ph_sc_eta < -0.800000 && ph_et >= 15.000000 && ph_et < 20.000000'
p103
sg6
S'bin13_ph_sc_eta_m1p44Tom0p80_ph_et_15p00To20p00'
p104
sg8
(dp105
g10
(dp106
g12
I20
sg13
I15
ssg14
(dp107
g12
F-0.8
sg13
F-1.4442
sssg16
S'; -1.444 < ph_sc_eta < -0.800; 15.000 < ph_et < 20.000'
p108
sa(dp109
g4
S'tag_Ele_pt > 35 && abs(tag_sc_eta) < 2.17 && ph_sc_eta >= -0.800000 && ph_sc_eta < 0.000000 && ph_et >= 15.000000 && ph_et < 20.000000'
p110
sg6
S'bin14_ph_sc_eta_m0p80To0p00_ph_et_15p00To20p00'
p111
sg8
(dp112
g10
(dp113
g12
I20
sg13
I15
ssg14
(dp114
g12
F0.0
sg13
F-0.8
sssg16
S'; -0.800 < ph_sc_eta < 0.000; 15.000 < ph_et < 20.000'
p115
sa(dp116
g4
S'tag_Ele_pt > 35 && abs(tag_sc_eta) < 2.17 && ph_sc_eta >= 0.000000 && ph_sc_eta < 0.800000 && ph_et >= 15.000000 && ph_et < 20.000000'
p117
sg6
S'bin15_ph_sc_eta_0p00To0p80_ph_et_15p00To20p00'
p118
sg8
(dp119
g10
(dp120
g12
I20
sg13
I15
ssg14
(dp121
g12
F0.8
sg13
F0.0
sssg16
S'; 0.000 < ph_sc_eta < 0.800; 15.000 < ph_et < 20.000'
p122
sa(dp123
g4
S'tag_Ele_pt > 35 && abs(tag_sc_eta) < 2.17 && ph_sc_eta >= 0.800000 && ph_sc_eta < 1.444200 && ph_et >= 15.000000 && ph_et < 20.000000'
p124
sg6
S'bin16_ph_sc_eta_0p80To1p44_ph_et_15p00To20p00'
p125
sg8
(dp126
g10
(dp127
g12
I20
sg13
I15
ssg14
(dp128
g12
F1.4442
sg13
F0.8
sssg16
S'; 0.800 < ph_sc_eta < 1.444; 15.000 < ph_et < 20.000'
p129
sa(dp130
g4
S'tag_Ele_pt > 35 && abs(tag_sc_eta) < 2.17 && ph_sc_eta >= 1.444200 && ph_sc_eta < 1.566000 && ph_et >= 15.000000 && ph_et < 20.000000'
p131
sg6
S'bin17_ph_sc_eta_1p44To1p57_ph_et_15p00To20p00'
p132
sg8
(dp133
g10
(dp134
g12
I20
sg13
I15
ssg14
(dp135
g12
F1.566
sg13
F1.4442
sssg16
S'; 1.444 < ph_sc_eta < 1.566; 15.000 < ph_et < 20.000'
p136
sa(dp137
g4
S'tag_Ele_pt > 35 && abs(tag_sc_eta) < 2.17 && ph_sc_eta >= 1.566000 && ph_sc_eta < 2.000000 && ph_et >= 15.000000 && ph_et < 20.000000'
p138
sg6
S'bin18_ph_sc_eta_1p57To2p00_ph_et_15p00To20p00'
p139
sg8
(dp140
g10
(dp141
g12
I20
sg13
I15
ssg14
(dp142
g12
F2.0
sg13
F1.566
sssg16
S'; 1.566 < ph_sc_eta < 2.000; 15.000 < ph_et < 20.000'
p143
sa(dp144
g4
S'tag_Ele_pt > 35 && abs(tag_sc_eta) < 2.17 && ph_sc_eta >= 2.000000 && ph_sc_eta < 2.500000 && ph_et >= 15.000000 && ph_et < 20.000000'
p145
sg6
S'bin19_ph_sc_eta_2p00To2p50_ph_et_15p00To20p00'
p146
sg8
(dp147
g10
(dp148
g12
I20
sg13
I15
ssg14
(dp149
g12
F2.5
sg13
F2.0
sssg16
S'; 2.000 < ph_sc_eta < 2.500; 15.000 < ph_et < 20.000'
p150
sa(dp151
g4
S'tag_Ele_pt > 35 && abs(tag_sc_eta) < 2.17 && ph_sc_eta >= -2.500000 && ph_sc_eta < -2.000000 && ph_et >= 20.000000 && ph_et < 35.000000'
p152
sg6
S'bin20_ph_sc_eta_m2p50Tom2p00_ph_et_20p00To35p00'
p153
sg8
(dp154
g10
(dp155
g12
I35
sg13
I20
ssg14
(dp156
g12
F-2.0
sg13
F-2.5
sssg16
S'; -2.500 < ph_sc_eta < -2.000; 20.000 < ph_et < 35.000'
p157
sa(dp158
g4
S'tag_Ele_pt > 35 && abs(tag_sc_eta) < 2.17 && ph_sc_eta >= -2.000000 && ph_sc_eta < -1.566000 && ph_et >= 20.000000 && ph_et < 35.000000'
p159
sg6
S'bin21_ph_sc_eta_m2p00Tom1p57_ph_et_20p00To35p00'
p160
sg8
(dp161
g10
(dp162
g12
I35
sg13
I20
ssg14
(dp163
g12
F-1.566
sg13
F-2.0
sssg16
S'; -2.000 < ph_sc_eta < -1.566; 20.000 < ph_et < 35.000'
p164
sa(dp165
g4
S'tag_Ele_pt > 35 && abs(tag_sc_eta) < 2.17 && ph_sc_eta >= -1.566000 && ph_sc_eta < -1.444200 && ph_et >= 20.000000 && ph_et < 35.000000'
p166
sg6
S'bin22_ph_sc_eta_m1p57Tom1p44_ph_et_20p00To35p00'
p167
sg8
(dp168
g10
(dp169
g12
I35
sg13
I20
ssg14
(dp170
g12
F-1.4442
sg13
F-1.566
sssg16
S'; -1.566 < ph_sc_eta < -1.444; 20.000 < ph_et < 35.000'
p171
sa(dp172
g4
S'tag_Ele_pt > 35 && abs(tag_sc_eta) < 2.17 && ph_sc_eta >= -1.444200 && ph_sc_eta < -0.800000 && ph_et >= 20.000000 && ph_et < 35.000000'
p173
sg6
S'bin23_ph_sc_eta_m1p44Tom0p80_ph_et_20p00To35p00'
p174
sg8
(dp175
g10
(dp176
g12
I35
sg13
I20
ssg14
(dp177
g12
F-0.8
sg13
F-1.4442
sssg16
S'; -1.444 < ph_sc_eta < -0.800; 20.000 < ph_et < 35.000'
p178
sa(dp179
g4
S'tag_Ele_pt > 35 && abs(tag_sc_eta) < 2.17 && ph_sc_eta >= -0.800000 && ph_sc_eta < 0.000000 && ph_et >= 20.000000 && ph_et < 35.000000'
p180
sg6
S'bin24_ph_sc_eta_m0p80To0p00_ph_et_20p00To35p00'
p181
sg8
(dp182
g10
(dp183
g12
I35
sg13
I20
ssg14
(dp184
g12
F0.0
sg13
F-0.8
sssg16
S'; -0.800 < ph_sc_eta < 0.000; 20.000 < ph_et < 35.000'
p185
sa(dp186
g4
S'tag_Ele_pt > 35 && abs(tag_sc_eta) < 2.17 && ph_sc_eta >= 0.000000 && ph_sc_eta < 0.800000 && ph_et >= 20.000000 && ph_et < 35.000000'
p187
sg6
S'bin25_ph_sc_eta_0p00To0p80_ph_et_20p00To35p00'
p188
sg8
(dp189
g10
(dp190
g12
I35
sg13
I20
ssg14
(dp191
g12
F0.8
sg13
F0.0
sssg16
S'; 0.000 < ph_sc_eta < 0.800; 20.000 < ph_et < 35.000'
p192
sa(dp193
g4
S'tag_Ele_pt > 35 && abs(tag_sc_eta) < 2.17 && ph_sc_eta >= 0.800000 && ph_sc_eta < 1.444200 && ph_et >= 20.000000 && ph_et < 35.000000'
p194
sg6
S'bin26_ph_sc_eta_0p80To1p44_ph_et_20p00To35p00'
p195
sg8
(dp196
g10
(dp197
g12
I35
sg13
I20
ssg14
(dp198
g12
F1.4442
sg13
F0.8
sssg16
S'; 0.800 < ph_sc_eta < 1.444; 20.000 < ph_et < 35.000'
p199
sa(dp200
g4
S'tag_Ele_pt > 35 && abs(tag_sc_eta) < 2.17 && ph_sc_eta >= 1.444200 && ph_sc_eta < 1.566000 && ph_et >= 20.000000 && ph_et < 35.000000'
p201
sg6
S'bin27_ph_sc_eta_1p44To1p57_ph_et_20p00To35p00'
p202
sg8
(dp203
g10
(dp204
g12
I35
sg13
I20
ssg14
(dp205
g12
F1.566
sg13
F1.4442
sssg16
S'; 1.444 < ph_sc_eta < 1.566; 20.000 < ph_et < 35.000'
p206
sa(dp207
g4
S'tag_Ele_pt > 35 && abs(tag_sc_eta) < 2.17 && ph_sc_eta >= 1.566000 && ph_sc_eta < 2.000000 && ph_et >= 20.000000 && ph_et < 35.000000'
p208
sg6
S'bin28_ph_sc_eta_1p57To2p00_ph_et_20p00To35p00'
p209
sg8
(dp210
g10
(dp211
g12
I35
sg13
I20
ssg14
(dp212
g12
F2.0
sg13
F1.566
sssg16
S'; 1.566 < ph_sc_eta < 2.000; 20.000 < ph_et < 35.000'
p213
sa(dp214
g4
S'tag_Ele_pt > 35 && abs(tag_sc_eta) < 2.17 && ph_sc_eta >= 2.000000 && ph_sc_eta < 2.500000 && ph_et >= 20.000000 && ph_et < 35.000000'
p215
sg6
S'bin29_ph_sc_eta_2p00To2p50_ph_et_20p00To35p00'
p216
sg8
(dp217
g10
(dp218
g12
I35
sg13
I20
ssg14
(dp219
g12
F2.5
sg13
F2.0
sssg16
S'; 2.000 < ph_sc_eta < 2.500; 20.000 < ph_et < 35.000'
p220
sa(dp221
g4
S'tag_Ele_pt > 35 && abs(tag_sc_eta) < 2.17 && ph_sc_eta >= -2.500000 && ph_sc_eta < -2.000000 && ph_et >= 35.000000 && ph_et < 50.000000'
p222
sg6
S'bin30_ph_sc_eta_m2p50Tom2p00_ph_et_35p00To50p00'
p223
sg8
(dp224
g10
(dp225
g12
I50
sg13
I35
ssg14
(dp226
g12
F-2.0
sg13
F-2.5
sssg16
S'; -2.500 < ph_sc_eta < -2.000; 35.000 < ph_et < 50.000'
p227
sa(dp228
g4
S'tag_Ele_pt > 35 && abs(tag_sc_eta) < 2.17 && ph_sc_eta >= -2.000000 && ph_sc_eta < -1.566000 && ph_et >= 35.000000 && ph_et < 50.000000'
p229
sg6
S'bin31_ph_sc_eta_m2p00Tom1p57_ph_et_35p00To50p00'
p230
sg8
(dp231
g10
(dp232
g12
I50
sg13
I35
ssg14
(dp233
g12
F-1.566
sg13
F-2.0
sssg16
S'; -2.000 < ph_sc_eta < -1.566; 35.000 < ph_et < 50.000'
p234
sa(dp235
g4
S'tag_Ele_pt > 35 && abs(tag_sc_eta) < 2.17 && ph_sc_eta >= -1.566000 && ph_sc_eta < -1.444200 && ph_et >= 35.000000 && ph_et < 50.000000'
p236
sg6
S'bin32_ph_sc_eta_m1p57Tom1p44_ph_et_35p00To50p00'
p237
sg8
(dp238
g10
(dp239
g12
I50
sg13
I35
ssg14
(dp240
g12
F-1.4442
sg13
F-1.566
sssg16
S'; -1.566 < ph_sc_eta < -1.444; 35.000 < ph_et < 50.000'
p241
sa(dp242
g4
S'tag_Ele_pt > 35 && abs(tag_sc_eta) < 2.17 && ph_sc_eta >= -1.444200 && ph_sc_eta < -0.800000 && ph_et >= 35.000000 && ph_et < 50.000000'
p243
sg6
S'bin33_ph_sc_eta_m1p44Tom0p80_ph_et_35p00To50p00'
p244
sg8
(dp245
g10
(dp246
g12
I50
sg13
I35
ssg14
(dp247
g12
F-0.8
sg13
F-1.4442
sssg16
S'; -1.444 < ph_sc_eta < -0.800; 35.000 < ph_et < 50.000'
p248
sa(dp249
g4
S'tag_Ele_pt > 35 && abs(tag_sc_eta) < 2.17 && ph_sc_eta >= -0.800000 && ph_sc_eta < 0.000000 && ph_et >= 35.000000 && ph_et < 50.000000'
p250
sg6
S'bin34_ph_sc_eta_m0p80To0p00_ph_et_35p00To50p00'
p251
sg8
(dp252
g10
(dp253
g12
I50
sg13
I35
ssg14
(dp254
g12
F0.0
sg13
F-0.8
sssg16
S'; -0.800 < ph_sc_eta < 0.000; 35.000 < ph_et < 50.000'
p255
sa(dp256
g4
S'tag_Ele_pt > 35 && abs(tag_sc_eta) < 2.17 && ph_sc_eta >= 0.000000 && ph_sc_eta < 0.800000 && ph_et >= 35.000000 && ph_et < 50.000000'
p257
sg6
S'bin35_ph_sc_eta_0p00To0p80_ph_et_35p00To50p00'
p258
sg8
(dp259
g10
(dp260
g12
I50
sg13
I35
ssg14
(dp261
g12
F0.8
sg13
F0.0
sssg16
S'; 0.000 < ph_sc_eta < 0.800; 35.000 < ph_et < 50.000'
p262
sa(dp263
g4
S'tag_Ele_pt > 35 && abs(tag_sc_eta) < 2.17 && ph_sc_eta >= 0.800000 && ph_sc_eta < 1.444200 && ph_et >= 35.000000 && ph_et < 50.000000'
p264
sg6
S'bin36_ph_sc_eta_0p80To1p44_ph_et_35p00To50p00'
p265
sg8
(dp266
g10
(dp267
g12
I50
sg13
I35
ssg14
(dp268
g12
F1.4442
sg13
F0.8
sssg16
S'; 0.800 < ph_sc_eta < 1.444; 35.000 < ph_et < 50.000'
p269
sa(dp270
g4
S'tag_Ele_pt > 35 && abs(tag_sc_eta) < 2.17 && ph_sc_eta >= 1.444200 && ph_sc_eta < 1.566000 && ph_et >= 35.000000 && ph_et < 50.000000'
p271
sg6
S'bin37_ph_sc_eta_1p44To1p57_ph_et_35p00To50p00'
p272
sg8
(dp273
g10
(dp274
g12
I50
sg13
I35
ssg14
(dp275
g12
F1.566
sg13
F1.4442
sssg16
S'; 1.444 < ph_sc_eta < 1.566; 35.000 < ph_et < 50.000'
p276
sa(dp277
g4
S'tag_Ele_pt > 35 && abs(tag_sc_eta) < 2.17 && ph_sc_eta >= 1.566000 && ph_sc_eta < 2.000000 && ph_et >= 35.000000 && ph_et < 50.000000'
p278
sg6
S'bin38_ph_sc_eta_1p57To2p00_ph_et_35p00To50p00'
p279
sg8
(dp280
g10
(dp281
g12
I50
sg13
I35
ssg14
(dp282
g12
F2.0
sg13
F1.566
sssg16
S'; 1.566 < ph_sc_eta < 2.000; 35.000 < ph_et < 50.000'
p283
sa(dp284
g4
S'tag_Ele_pt > 35 && abs(tag_sc_eta) < 2.17 && ph_sc_eta >= 2.000000 && ph_sc_eta < 2.500000 && ph_et >= 35.000000 && ph_et < 50.000000'
p285
sg6
S'bin39_ph_sc_eta_2p00To2p50_ph_et_35p00To50p00'
p286
sg8
(dp287
g10
(dp288
g12
I50
sg13
I35
ssg14
(dp289
g12
F2.5
sg13
F2.0
sssg16
S'; 2.000 < ph_sc_eta < 2.500; 35.000 < ph_et < 50.000'
p290
sasg8
(lp291
g14
ag10
as.